target datalayout = "e-m:e-p270:32:32-p271:32:32-p272:64:64-i64:64-i128:128-f80:128-n8:16:32:64-S128"
target triple = "x86_64-pc-linux-gnu"

%"class.icu_77::MaybeStackArray" = type <{ ptr, i32, i8, [40 x i8], [3 x i8] }>
%"class.std::basic_string_view" = type { i64, ptr }
%"class.icu_77::CharString" = type { %"class.icu_77::MaybeStackArray", i32, [4 x i8] }
%"class.icu_77::CharStringByteSink" = type { %"class.icu_77::ByteSink", ptr }
%"class.icu_77::ByteSink" = type { ptr }
%"class.icu_77::StringPiece" = type <{ ptr, i32, [4 x i8] }>

; Function Attrs: noinline noreturn nounwind uwtable
define linkonce_odr hidden void @__clang_call_terminate(ptr noundef %0) #4 comdat {
  %2 = call ptr @__cxa_begin_catch(ptr %0) #11
  call void @_ZSt9terminatev() #13
  unreachable
}

; Function Attrs: mustprogress nounwind uwtable
define linkonce_odr noundef ptr @_ZNSt11char_traitsIcE4findEPKcmRS1_(ptr noundef %0, i64 noundef %1, ptr noundef nonnull align 1 dereferenceable(1) %2) #0 comdat align 2 {
  %4 = alloca ptr, align 8
  %5 = alloca ptr, align 8
  %6 = alloca i64, align 8
  %7 = alloca ptr, align 8
  store ptr %0, ptr %5, align 8, !tbaa !17
  store i64 %1, ptr %6, align 8, !tbaa !18
  store ptr %2, ptr %7, align 8, !tbaa !17
  %8 = load i64, ptr %6, align 8, !tbaa !18
  %9 = icmp eq i64 %8, 0
  br i1 %9, label %10, label %11

10:                                               ; preds = %3
  store ptr null, ptr %4, align 8
  br label %18

11:                                               ; preds = %3
  %12 = load ptr, ptr %5, align 8, !tbaa !17
  %13 = load ptr, ptr %7, align 8, !tbaa !17
  %14 = load i8, ptr %13, align 1, !tbaa !25
  %15 = sext i8 %14 to i32
  %16 = load i64, ptr %6, align 8, !tbaa !18
  %17 = call ptr @memchr(ptr noundef %12, i32 noundef %15, i64 noundef %16) #11
  store ptr %17, ptr %4, align 8
  br label %18

18:                                               ; preds = %11, %10
  %19 = load ptr, ptr %4, align 8
  ret ptr %19
}

; Function Attrs: mustprogress nounwind uwtable
define linkonce_odr noundef ptr @_ZNKSt17basic_string_viewIcSt11char_traitsIcEE4dataEv(ptr noundef nonnull align 8 dereferenceable(16) %0) #0 comdat align 2 {
  %2 = alloca ptr, align 8
  store ptr %0, ptr %2, align 8, !tbaa !23
  %3 = load ptr, ptr %2, align 8
  %4 = getelementptr inbounds nuw %"class.std::basic_string_view", ptr %3, i32 0, i32 1
  %5 = load ptr, ptr %4, align 8, !tbaa !28
  ret ptr %5
}

; Function Attrs: mustprogress nounwind uwtable
define linkonce_odr noundef i64 @_ZNKSt17basic_string_viewIcSt11char_traitsIcEE4findEcm(ptr noundef nonnull align 8 dereferenceable(16) %0, i8 noundef signext %1, i64 noundef %2) #0 comdat align 2 personality ptr @__gxx_personality_v0 {
  %4 = alloca ptr, align 8
  %5 = alloca i8, align 1
  %6 = alloca i64, align 8
  %7 = alloca i64, align 8
  %8 = alloca i64, align 8
  %9 = alloca ptr, align 8
  store ptr %0, ptr %4, align 8, !tbaa !23
  store i8 %1, ptr %5, align 1, !tbaa !25
  store i64 %2, ptr %6, align 8, !tbaa !18
  %10 = load ptr, ptr %4, align 8
  call void @llvm.lifetime.start.p0(i64 8, ptr %7) #11
  store i64 -1, ptr %7, align 8, !tbaa !18
  %11 = load i64, ptr %6, align 8, !tbaa !18
  %12 = getelementptr inbounds nuw %"class.std::basic_string_view", ptr %10, i32 0, i32 0
  %13 = load i64, ptr %12, align 8, !tbaa !26
  %14 = icmp ult i64 %11, %13
  br i1 %14, label %15, label %37

15:                                               ; preds = %3
  call void @llvm.lifetime.start.p0(i64 8, ptr %8) #11
  %16 = getelementptr inbounds nuw %"class.std::basic_string_view", ptr %10, i32 0, i32 0
  %17 = load i64, ptr %16, align 8, !tbaa !26
  %18 = load i64, ptr %6, align 8, !tbaa !18
  %19 = sub i64 %17, %18
  store i64 %19, ptr %8, align 8, !tbaa !18
  call void @llvm.lifetime.start.p0(i64 8, ptr %9) #11
  %20 = getelementptr inbounds nuw %"class.std::basic_string_view", ptr %10, i32 0, i32 1
  %21 = load ptr, ptr %20, align 8, !tbaa !28
  %22 = load i64, ptr %6, align 8, !tbaa !18
  %23 = getelementptr inbounds nuw i8, ptr %21, i64 %22
  %24 = load i64, ptr %8, align 8, !tbaa !18
  %25 = invoke noundef ptr @_ZNSt11char_traitsIcE4findEPKcmRS1_(ptr noundef %23, i64 noundef %24, ptr noundef nonnull align 1 dereferenceable(1) %5)
          to label %26 unwind label %39

26:                                               ; preds = %15
  store ptr %25, ptr %9, align 8, !tbaa !17
  %27 = load ptr, ptr %9, align 8, !tbaa !17
  %28 = icmp ne ptr %27, null
  br i1 %28, label %29, label %36

29:                                               ; preds = %26
  %30 = load ptr, ptr %9, align 8, !tbaa !17
  %31 = getelementptr inbounds nuw %"class.std::basic_string_view", ptr %10, i32 0, i32 1
  %32 = load ptr, ptr %31, align 8, !tbaa !28
  %33 = ptrtoint ptr %30 to i64
  %34 = ptrtoint ptr %32 to i64
  %35 = sub i64 %33, %34
  store i64 %35, ptr %7, align 8, !tbaa !18
  br label %36

36:                                               ; preds = %29, %26
  call void @llvm.lifetime.end.p0(i64 8, ptr %9) #11
  call void @llvm.lifetime.end.p0(i64 8, ptr %8) #11
  br label %37

37:                                               ; preds = %36, %3
  %38 = load i64, ptr %7, align 8, !tbaa !18
  call void @llvm.lifetime.end.p0(i64 8, ptr %7) #11
  ret i64 %38

39:                                               ; preds = %15
  %40 = landingpad { ptr, i32 }
          catch ptr null
  %41 = extractvalue { ptr, i32 } %40, 0
  call void @__clang_call_terminate(ptr %41) #13
  unreachable
}

; Function Attrs: mustprogress nounwind uwtable
define linkonce_odr void @_ZNSt17basic_string_viewIcSt11char_traitsIcEEC2EPKcm(ptr noundef nonnull align 8 dereferenceable(16) %0, ptr noundef %1, i64 noundef %2) unnamed_addr #0 comdat align 2 {
  %4 = alloca ptr, align 8
  %5 = alloca ptr, align 8
  %6 = alloca i64, align 8
  store ptr %0, ptr %4, align 8, !tbaa !23
  store ptr %1, ptr %5, align 8, !tbaa !17
  store i64 %2, ptr %6, align 8, !tbaa !18
  %7 = load ptr, ptr %4, align 8
  %8 = getelementptr inbounds nuw %"class.std::basic_string_view", ptr %7, i32 0, i32 0
  %9 = load i64, ptr %6, align 8, !tbaa !18
  store i64 %9, ptr %8, align 8, !tbaa !26
  %10 = getelementptr inbounds nuw %"class.std::basic_string_view", ptr %7, i32 0, i32 1
  %11 = load ptr, ptr %5, align 8, !tbaa !17
  store ptr %11, ptr %10, align 8, !tbaa !28
  ret void
}

; Function Attrs: mustprogress nounwind uwtable
define linkonce_odr noundef i32 @_ZNK6icu_7711StringPiece4sizeEv(ptr noundef nonnull align 8 dereferenceable(12) %0) #0 comdat align 2 {
  %2 = alloca ptr, align 8
  store ptr %0, ptr %2, align 8, !tbaa !72
  %3 = load ptr, ptr %2, align 8
  %4 = getelementptr inbounds nuw %"class.icu_77::StringPiece", ptr %3, i32 0, i32 1
  %5 = load i32, ptr %4, align 8, !tbaa !130
  ret i32 %5
}

; Function Attrs: mustprogress nounwind uwtable
define linkonce_odr noundef ptr @_ZNK6icu_7711StringPiece4dataEv(ptr noundef nonnull align 8 dereferenceable(12) %0) #0 comdat align 2 {
  %2 = alloca ptr, align 8
  store ptr %0, ptr %2, align 8, !tbaa !72
  %3 = load ptr, ptr %2, align 8
  %4 = getelementptr inbounds nuw %"class.icu_77::StringPiece", ptr %3, i32 0, i32 0
  %5 = load ptr, ptr %4, align 8, !tbaa !128
  ret ptr %5
}

; Function Attrs: mustprogress nounwind uwtable
define linkonce_odr void @_ZN6icu_7711StringPieceC2EPKci(ptr noundef nonnull align 8 dereferenceable(12) %0, ptr noundef %1, i32 noundef %2) unnamed_addr #0 comdat align 2 {
  %4 = alloca ptr, align 8
  %5 = alloca ptr, align 8
  %6 = alloca i32, align 4
  store ptr %0, ptr %4, align 8, !tbaa !72
  store ptr %1, ptr %5, align 8, !tbaa !17
  store i32 %2, ptr %6, align 4, !tbaa !14
  %7 = load ptr, ptr %4, align 8
  %8 = getelementptr inbounds nuw %"class.icu_77::StringPiece", ptr %7, i32 0, i32 0
  %9 = load ptr, ptr %5, align 8, !tbaa !17
  store ptr %9, ptr %8, align 8, !tbaa !128
  %10 = getelementptr inbounds nuw %"class.icu_77::StringPiece", ptr %7, i32 0, i32 1
  %11 = load i32, ptr %6, align 4, !tbaa !14
  store i32 %11, ptr %10, align 8, !tbaa !130
  ret void
}

; Function Attrs: mustprogress nounwind uwtable
define weak_odr noundef ptr @_ZNK6icu_7715MaybeStackArrayIcLi40EE8getAliasEv(ptr noundef nonnull align 8 dereferenceable(53) %0) #0 comdat align 2 {
  %2 = alloca ptr, align 8
  store ptr %0, ptr %2, align 8, !tbaa !3
  %3 = load ptr, ptr %2, align 8
  %4 = getelementptr inbounds nuw %"class.icu_77::MaybeStackArray", ptr %3, i32 0, i32 0
  %5 = load ptr, ptr %4, align 8, !tbaa !8
  ret ptr %5
}

; Function Attrs: mustprogress nounwind uwtable
define linkonce_odr void @_ZNSt17basic_string_viewIcSt11char_traitsIcEE13remove_prefixEm(ptr noundef nonnull align 8 dereferenceable(16) %0, i64 noundef %1) #0 comdat align 2 {
  %3 = alloca ptr, align 8
  %4 = alloca i64, align 8
  store ptr %0, ptr %3, align 8, !tbaa !23
  store i64 %1, ptr %4, align 8, !tbaa !18
  %5 = load ptr, ptr %3, align 8
  br label %6

6:                                                ; preds = %2
  br label %7

7:                                                ; preds = %6
  br label %8

8:                                                ; preds = %7
  %9 = load i64, ptr %4, align 8, !tbaa !18
  %10 = getelementptr inbounds nuw %"class.std::basic_string_view", ptr %5, i32 0, i32 1
  %11 = load ptr, ptr %10, align 8, !tbaa !28
  %12 = getelementptr inbounds nuw i8, ptr %11, i64 %9
  store ptr %12, ptr %10, align 8, !tbaa !28
  %13 = load i64, ptr %4, align 8, !tbaa !18
  %14 = getelementptr inbounds nuw %"class.std::basic_string_view", ptr %5, i32 0, i32 0
  %15 = load i64, ptr %14, align 8, !tbaa !26
  %16 = sub i64 %15, %13
  store i64 %16, ptr %14, align 8, !tbaa !26
  ret void
}

; Function Attrs: mustprogress nounwind uwtable
define linkonce_odr noundef ptr @_ZN6icu_7710CharString4dataEv(ptr noundef nonnull align 8 dereferenceable(60) %0) #0 comdat align 2 {
  %2 = alloca ptr, align 8
  store ptr %0, ptr %2, align 8, !tbaa !62
  %3 = load ptr, ptr %2, align 8
  %4 = getelementptr inbounds nuw %"class.icu_77::CharString", ptr %3, i32 0, i32 0
  %5 = call noundef ptr @_ZNK6icu_7715MaybeStackArrayIcLi40EE8getAliasEv(ptr noundef nonnull align 8 dereferenceable(53) %4)
  ret ptr %5
}

; Function Attrs: mustprogress nounwind uwtable
define ptr @locale_getKeywordsStart_77(i64 %0, ptr %1) #0 {
  %3 = alloca ptr, align 8
  %4 = alloca %"class.std::basic_string_view", align 8
  %5 = alloca i64, align 8
  %6 = alloca i32, align 4
  %7 = getelementptr inbounds nuw { i64, ptr }, ptr %4, i32 0, i32 0
  store i64 %0, ptr %7, align 8
  %8 = getelementptr inbounds nuw { i64, ptr }, ptr %4, i32 0, i32 1
  store ptr %1, ptr %8, align 8
  call void @llvm.lifetime.start.p0(i64 8, ptr %5) #11
  %9 = call noundef i64 @_ZNKSt17basic_string_viewIcSt11char_traitsIcEE4findEcm(ptr noundef nonnull align 8 dereferenceable(16) %4, i8 noundef signext 64, i64 noundef 0) #11
  store i64 %9, ptr %5, align 8, !tbaa !18
  %10 = load i64, ptr %5, align 8, !tbaa !18
  %11 = icmp ne i64 %10, -1
  br i1 %11, label %12, label %16

12:                                               ; preds = %2
  %13 = call noundef ptr @_ZNKSt17basic_string_viewIcSt11char_traitsIcEE4dataEv(ptr noundef nonnull align 8 dereferenceable(16) %4) #11
  %14 = load i64, ptr %5, align 8, !tbaa !18
  %15 = getelementptr inbounds nuw i8, ptr %13, i64 %14
  store ptr %15, ptr %3, align 8
  store i32 1, ptr %6, align 4
  br label %17

16:                                               ; preds = %2
  store i32 0, ptr %6, align 4
  br label %17

17:                                               ; preds = %16, %12
  call void @llvm.lifetime.end.p0(i64 8, ptr %5) #11
  %18 = load i32, ptr %6, align 4
  switch i32 %18, label %22 [
    i32 0, label %19
    i32 1, label %20
  ]

19:                                               ; preds = %17
  store ptr null, ptr %3, align 8
  br label %20

20:                                               ; preds = %19, %17
  %21 = load ptr, ptr %3, align 8
  ret ptr %21

22:                                               ; preds = %17
  unreachable
}

; Function Attrs: inlinehint mustprogress uwtable
define linkonce_odr { i64, ptr } @_ZNK6icu_7711StringPiececvSt17basic_string_viewIcSt11char_traitsIcEEEv(ptr noundef nonnull align 8 dereferenceable(12) %0) #3 comdat align 2 {
  %2 = alloca %"class.std::basic_string_view", align 8
  %3 = alloca ptr, align 8
  store ptr %0, ptr %3, align 8, !tbaa !72
  %4 = load ptr, ptr %3, align 8
  %5 = call noundef ptr @_ZNK6icu_7711StringPiece4dataEv(ptr noundef nonnull align 8 dereferenceable(12) %4)
  %6 = call noundef i32 @_ZNK6icu_7711StringPiece4sizeEv(ptr noundef nonnull align 8 dereferenceable(12) %4)
  %7 = sext i32 %6 to i64
  call void @_ZNSt17basic_string_viewIcSt11char_traitsIcEEC2EPKcm(ptr noundef nonnull align 8 dereferenceable(16) %2, ptr noundef %5, i64 noundef %7) #11
  %8 = load { i64, ptr }, ptr %2, align 8
  ret { i64, ptr } %8
}

; Function Attrs: mustprogress uwtable
define linkonce_odr { ptr, i32 } @_ZNK6icu_7710CharString13toStringPieceEv(ptr noundef nonnull align 8 dereferenceable(60) %0) #1 comdat align 2 {
  %2 = alloca %"class.icu_77::StringPiece", align 8
  %3 = alloca ptr, align 8
  store ptr %0, ptr %3, align 8, !tbaa !62
  %4 = load ptr, ptr %3, align 8
  %5 = getelementptr inbounds nuw %"class.icu_77::CharString", ptr %4, i32 0, i32 0
  %6 = call noundef ptr @_ZNK6icu_7715MaybeStackArrayIcLi40EE8getAliasEv(ptr noundef nonnull align 8 dereferenceable(53) %5)
  %7 = getelementptr inbounds nuw %"class.icu_77::CharString", ptr %4, i32 0, i32 1
  %8 = load i32, ptr %7, align 8, !tbaa !64
  call void @_ZN6icu_7711StringPieceC2EPKci(ptr noundef nonnull align 8 dereferenceable(12) %2, ptr noundef %6, i32 noundef %8)
  %9 = load { ptr, i32 }, ptr %2, align 8
  ret { ptr, i32 } %9
}

; Function Attrs: mustprogress nounwind uwtable
define linkonce_odr void @_ZNSt17basic_string_viewIcSt11char_traitsIcEEC2Ev(ptr noundef nonnull align 8 dereferenceable(16) %0) unnamed_addr #0 comdat align 2 {
  %2 = alloca ptr, align 8
  store ptr %0, ptr %2, align 8, !tbaa !23
  %3 = load ptr, ptr %2, align 8
  %4 = getelementptr inbounds nuw %"class.std::basic_string_view", ptr %3, i32 0, i32 0
  store i64 0, ptr %4, align 8, !tbaa !26
  %5 = getelementptr inbounds nuw %"class.std::basic_string_view", ptr %3, i32 0, i32 1
  store ptr null, ptr %5, align 8, !tbaa !28
  ret void
}

; Function Attrs: inlinehint mustprogress nounwind uwtable
define internal noundef signext i8 @_ZL9U_FAILURE10UErrorCode(i32 noundef %0) #2 {
  %2 = alloca i32, align 4
  store i32 %0, ptr %2, align 4, !tbaa !15
  %3 = load i32, ptr %2, align 4, !tbaa !15
  %4 = icmp sgt i32 %3, 0
  %5 = zext i1 %4 to i8
  ret i8 %5
}

; Function Attrs: mustprogress uwtable
define void @_Z26ulocimp_setKeywordValue_77St17basic_string_viewIcSt11char_traitsIcEES2_RN6icu_7710CharStringER10UErrorCode(i64 %0, ptr %1, i64 %2, ptr %3, ptr noundef nonnull align 8 dereferenceable(60) %4, ptr noundef nonnull align 4 dereferenceable(4) %5) #1 personality ptr @__gxx_personality_v0 {
  %7 = alloca %"class.std::basic_string_view", align 8
  %8 = alloca %"class.std::basic_string_view", align 8
  %9 = alloca ptr, align 8
  %10 = alloca ptr, align 8
  %11 = alloca %"class.std::basic_string_view", align 8
  %12 = alloca ptr, align 8
  %13 = alloca %"class.std::basic_string_view", align 8
  %14 = alloca %"class.icu_77::StringPiece", align 8
  %15 = alloca { ptr, i32 }, align 8
  %16 = alloca i32, align 4
  %17 = alloca %"class.std::basic_string_view", align 8
  %18 = alloca %"class.icu_77::StringPiece", align 8
  %19 = alloca { ptr, i32 }, align 8
  %20 = alloca %"class.icu_77::CharStringByteSink", align 8
  %21 = alloca %"class.std::basic_string_view", align 8
  %22 = alloca %"class.std::basic_string_view", align 8
  %23 = alloca %"class.std::basic_string_view", align 8
  %24 = alloca ptr, align 8
  %25 = alloca i32, align 4
  %26 = getelementptr inbounds nuw { i64, ptr }, ptr %7, i32 0, i32 0
  store i64 %0, ptr %26, align 8
  %27 = getelementptr inbounds nuw { i64, ptr }, ptr %7, i32 0, i32 1
  store ptr %1, ptr %27, align 8
  %28 = getelementptr inbounds nuw { i64, ptr }, ptr %8, i32 0, i32 0
  store i64 %2, ptr %28, align 8
  %29 = getelementptr inbounds nuw { i64, ptr }, ptr %8, i32 0, i32 1
  store ptr %3, ptr %29, align 8
  store ptr %4, ptr %9, align 8, !tbaa !62
  store ptr %5, ptr %10, align 8, !tbaa !22
  %30 = load ptr, ptr %10, align 8, !tbaa !22
  %31 = load i32, ptr %30, align 4, !tbaa !15
  %32 = call noundef signext i8 @_ZL9U_FAILURE10UErrorCode(i32 noundef %31)
  %33 = icmp ne i8 %32, 0
  br i1 %33, label %34, label %35

34:                                               ; preds = %6
  br label %87

35:                                               ; preds = %6
  call void @llvm.lifetime.start.p0(i64 16, ptr %11) #11
  call void @_ZNSt17basic_string_viewIcSt11char_traitsIcEEC2Ev(ptr noundef nonnull align 8 dereferenceable(16) %11) #11
  call void @llvm.lifetime.start.p0(i64 8, ptr %12) #11
  call void @llvm.lifetime.start.p0(i64 16, ptr %14) #11
  %36 = load ptr, ptr %9, align 8, !tbaa !62
  %37 = call { ptr, i32 } @_ZNK6icu_7710CharString13toStringPieceEv(ptr noundef nonnull align 8 dereferenceable(60) %36)
  store { ptr, i32 } %37, ptr %15, align 8
  call void @llvm.memcpy.p0.p0.i64(ptr align 8 %14, ptr align 8 %15, i64 12, i1 false)
  %38 = call { i64, ptr } @_ZNK6icu_7711StringPiececvSt17basic_string_viewIcSt11char_traitsIcEEEv(ptr noundef nonnull align 8 dereferenceable(12) %14)
  %39 = getelementptr inbounds nuw { i64, ptr }, ptr %13, i32 0, i32 0
  %40 = extractvalue { i64, ptr } %38, 0
  store i64 %40, ptr %39, align 8
  %41 = getelementptr inbounds nuw { i64, ptr }, ptr %13, i32 0, i32 1
  %42 = extractvalue { i64, ptr } %38, 1
  store ptr %42, ptr %41, align 8
  %43 = getelementptr inbounds nuw { i64, ptr }, ptr %13, i32 0, i32 0
  %44 = load i64, ptr %43, align 8
  %45 = getelementptr inbounds nuw { i64, ptr }, ptr %13, i32 0, i32 1
  %46 = load ptr, ptr %45, align 8
  %47 = call ptr @locale_getKeywordsStart_77(i64 %44, ptr %46)
  call void @llvm.lifetime.end.p0(i64 16, ptr %14) #11
  store ptr %47, ptr %12, align 8, !tbaa !17
  %48 = load ptr, ptr %12, align 8, !tbaa !17
  %49 = icmp ne ptr %48, null
  br i1 %49, label %50, label %70

50:                                               ; preds = %35
  call void @llvm.lifetime.start.p0(i64 4, ptr %16) #11
  %51 = load ptr, ptr %12, align 8, !tbaa !17
  %52 = load ptr, ptr %9, align 8, !tbaa !62
  %53 = call noundef ptr @_ZN6icu_7710CharString4dataEv(ptr noundef nonnull align 8 dereferenceable(60) %52)
  %54 = ptrtoint ptr %51 to i64
  %55 = ptrtoint ptr %53 to i64
  %56 = sub i64 %54, %55
  %57 = trunc i64 %56 to i32
  store i32 %57, ptr %16, align 4, !tbaa !14
  call void @llvm.lifetime.start.p0(i64 16, ptr %17) #11
  call void @llvm.lifetime.start.p0(i64 16, ptr %18) #11
  %58 = load ptr, ptr %9, align 8, !tbaa !62
  %59 = call { ptr, i32 } @_ZNK6icu_7710CharString13toStringPieceEv(ptr noundef nonnull align 8 dereferenceable(60) %58)
  store { ptr, i32 } %59, ptr %19, align 8
  call void @llvm.memcpy.p0.p0.i64(ptr align 8 %18, ptr align 8 %19, i64 12, i1 false)
  %60 = call { i64, ptr } @_ZNK6icu_7711StringPiececvSt17basic_string_viewIcSt11char_traitsIcEEEv(ptr noundef nonnull align 8 dereferenceable(12) %18)
  %61 = getelementptr inbounds nuw { i64, ptr }, ptr %17, i32 0, i32 0
  %62 = extractvalue { i64, ptr } %60, 0
  store i64 %62, ptr %61, align 8
  %63 = getelementptr inbounds nuw { i64, ptr }, ptr %17, i32 0, i32 1
  %64 = extractvalue { i64, ptr } %60, 1
  store ptr %64, ptr %63, align 8
  call void @llvm.memcpy.p0.p0.i64(ptr align 8 %11, ptr align 8 %17, i64 16, i1 false), !tbaa.struct !42
  call void @llvm.lifetime.end.p0(i64 16, ptr %18) #11
  call void @llvm.lifetime.end.p0(i64 16, ptr %17) #11
  %65 = load i32, ptr %16, align 4, !tbaa !14
  %66 = sext i32 %65 to i64
  call void @_ZNSt17basic_string_viewIcSt11char_traitsIcEE13remove_prefixEm(ptr noundef nonnull align 8 dereferenceable(16) %11, i64 noundef %66) #11
  %67 = load ptr, ptr %9, align 8, !tbaa !62
  %68 = load i32, ptr %16, align 4, !tbaa !14
  %69 = call noundef nonnull align 8 dereferenceable(60) ptr @_ZN6icu_7710CharString8truncateEi(ptr noundef nonnull align 8 dereferenceable(60) %67, i32 noundef %68)
  call void @llvm.lifetime.end.p0(i64 4, ptr %16) #11
  br label %70

70:                                               ; preds = %50, %35
  call void @llvm.lifetime.end.p0(i64 8, ptr %12) #11
  call void @llvm.lifetime.start.p0(i64 16, ptr %20) #11
  %71 = load ptr, ptr %9, align 8, !tbaa !62
  call void @_ZN6icu_7718CharStringByteSinkC1EPNS_10CharStringE(ptr noundef nonnull align 8 dereferenceable(16) %20, ptr noundef %71)
  call void @llvm.memcpy.p0.p0.i64(ptr align 8 %21, ptr align 8 %11, i64 16, i1 false), !tbaa.struct !42
  call void @llvm.memcpy.p0.p0.i64(ptr align 8 %22, ptr align 8 %7, i64 16, i1 false), !tbaa.struct !42
  call void @llvm.memcpy.p0.p0.i64(ptr align 8 %23, ptr align 8 %8, i64 16, i1 false), !tbaa.struct !42
  %72 = load ptr, ptr %10, align 8, !tbaa !22
  %73 = getelementptr inbounds nuw { i64, ptr }, ptr %21, i32 0, i32 0
  %74 = load i64, ptr %73, align 8
  %75 = getelementptr inbounds nuw { i64, ptr }, ptr %21, i32 0, i32 1
  %76 = load ptr, ptr %75, align 8
  %77 = getelementptr inbounds nuw { i64, ptr }, ptr %22, i32 0, i32 0
  %78 = load i64, ptr %77, align 8
  %79 = getelementptr inbounds nuw { i64, ptr }, ptr %22, i32 0, i32 1
  %80 = load ptr, ptr %79, align 8
  %81 = getelementptr inbounds nuw { i64, ptr }, ptr %23, i32 0, i32 0
  %82 = load i64, ptr %81, align 8
  %83 = getelementptr inbounds nuw { i64, ptr }, ptr %23, i32 0, i32 1
  %84 = load ptr, ptr %83, align 8
  %85 = invoke noundef i32 @_Z26ulocimp_setKeywordValue_77St17basic_string_viewIcSt11char_traitsIcEES2_S2_RN6icu_778ByteSinkER10UErrorCode(i64 %74, ptr %76, i64 %78, ptr %80, i64 %82, ptr %84, ptr noundef nonnull align 8 dereferenceable(8) %20, ptr noundef nonnull align 4 dereferenceable(4) %72)
          to label %86 unwind label %88

86:                                               ; preds = %70
  call void @_ZN6icu_7718CharStringByteSinkD1Ev(ptr noundef nonnull align 8 dereferenceable(16) %20) #11
  call void @llvm.lifetime.end.p0(i64 16, ptr %20) #11
  call void @llvm.lifetime.end.p0(i64 16, ptr %11) #11
  br label %87

87:                                               ; preds = %86, %34
  ret void

88:                                               ; preds = %70
  %89 = landingpad { ptr, i32 }
          cleanup
  %90 = extractvalue { ptr, i32 } %89, 0
  store ptr %90, ptr %24, align 8
  %91 = extractvalue { ptr, i32 } %89, 1
  store i32 %91, ptr %25, align 4
  call void @_ZN6icu_7718CharStringByteSinkD1Ev(ptr noundef nonnull align 8 dereferenceable(16) %20) #11
  call void @llvm.lifetime.end.p0(i64 16, ptr %20) #11
  call void @llvm.lifetime.end.p0(i64 16, ptr %11) #11
  br label %92

92:                                               ; preds = %88
  %93 = load ptr, ptr %24, align 8
  %94 = load i32, ptr %25, align 4
  %95 = insertvalue { ptr, i32 } poison, ptr %93, 0
  %96 = insertvalue { ptr, i32 } %95, i32 %94, 1
  resume { ptr, i32 } %96
}