; Function Attrs: mustprogress uwtable
define void @_Z26ulocimp_setKeywordValue_77St17basic_string_viewIcSt11char_traitsIcEES2_RN6icu_7710CharStringER10UErrorCode(i64 %0, ptr %1, i64 %2, ptr %3, ptr noundef nonnull align 8 dereferenceable(60) %4, ptr noundef nonnull align 4 dereferenceable(4) %5) local_unnamed_addr #1 personality ptr @__gxx_personality_v0 {
  %7 = alloca %"class.icu_77::CharStringByteSink", align 8
  %8 = load i32, ptr %5, align 4, !tbaa !13
  %9 = icmp slt i32 %8, 1
  br i1 %9, label %10, label %27

10:                                               ; preds = %6
  %11 = load ptr, ptr %4, align 8, !tbaa !3
  %12 = getelementptr inbounds nuw i8, ptr %4, i64 56
  %13 = load i32, ptr %12, align 8, !tbaa !18
  %14 = sext i32 %13 to i64
  %.not12.i = icmp eq i32 %13, 0
  br i1 %.not12.i, label %locale_getKeywordsStart_77.exit.thread, label %_ZNSt11char_traitsIcE4findEPKcmRS1_.exit.i.i

_ZNSt11char_traitsIcE4findEPKcmRS1_.exit.i.i:     ; preds = %10
  %15 = tail call ptr @memchr(ptr noundef %11, i32 noundef 64, i64 noundef %14) #20
  %.not.i.i = icmp eq ptr %15, null
  %16 = ptrtoint ptr %15 to i64
  %17 = ptrtoint ptr %11 to i64
  %18 = sub i64 %16, %17
  %.not.i = icmp eq i64 %18, -1
  %or.cond.i.not42 = select i1 %.not.i.i, i1 true, i1 %.not.i
  br i1 %or.cond.i.not42, label %locale_getKeywordsStart_77.exit.thread, label %19

19:                                               ; preds = %_ZNSt11char_traitsIcE4findEPKcmRS1_.exit.i.i
  %20 = trunc i64 %18 to i32
  %sext = shl i64 %18, 32
  %21 = ashr exact i64 %sext, 32
  %22 = getelementptr inbounds nuw i8, ptr %11, i64 %21
  %23 = sub nsw i64 %14, %21
  %24 = tail call noundef nonnull align 8 dereferenceable(60) ptr @_ZN6icu_7710CharString8truncateEi(ptr noundef nonnull align 8 dereferenceable(60) %4, i32 noundef %20)
  br label %locale_getKeywordsStart_77.exit.thread

locale_getKeywordsStart_77.exit.thread:           ; preds = %_ZNSt11char_traitsIcE4findEPKcmRS1_.exit.i.i, %10, %19
  %.sroa.8.0 = phi ptr [ %22, %19 ], [ null, %10 ], [ null, %_ZNSt11char_traitsIcE4findEPKcmRS1_.exit.i.i ]
  %.sroa.039.0 = phi i64 [ %23, %19 ], [ 0, %10 ], [ 0, %_ZNSt11char_traitsIcE4findEPKcmRS1_.exit.i.i ]
  call void @llvm.lifetime.start.p0(i64 16, ptr nonnull %7) #20
  call void @_ZN6icu_7718CharStringByteSinkC1EPNS_10CharStringE(ptr noundef nonnull align 8 dereferenceable(16) %7, ptr noundef nonnull %4)
  %25 = invoke noundef i32 @_Z26ulocimp_setKeywordValue_77St17basic_string_viewIcSt11char_traitsIcEES2_S2_RN6icu_778ByteSinkER10UErrorCode(i64 %.sroa.039.0, ptr %.sroa.8.0, i64 %0, ptr %1, i64 %2, ptr %3, ptr noundef nonnull align 8 dereferenceable(8) %7, ptr noundef nonnull align 4 dereferenceable(4) %5)
          to label %26 unwind label %28

26:                                               ; preds = %locale_getKeywordsStart_77.exit.thread
  call void @_ZN6icu_7718CharStringByteSinkD1Ev(ptr noundef nonnull align 8 dereferenceable(16) %7) #20
  call void @llvm.lifetime.end.p0(i64 16, ptr nonnull %7) #20
  br label %27

27:                                               ; preds = %6, %26
  ret void

28:                                               ; preds = %locale_getKeywordsStart_77.exit.thread
  %29 = landingpad { ptr, i32 }
          cleanup
  call void @_ZN6icu_7718CharStringByteSinkD1Ev(ptr noundef nonnull align 8 dereferenceable(16) %7) #20
  call void @llvm.lifetime.end.p0(i64 16, ptr nonnull %7) #20
  resume { ptr, i32 } %29
}